target datalayout = "e-m:e-p270:32:32-p271:32:32-p272:64:64-i64:64-i128:128-f80:128-n8:16:32:64-S128"
target triple = "x86_64-pc-linux-gnu"

%struct.AVCodecContext = type { ptr, i32, i32, ptr, i32, i32, ptr, ptr, ptr, i64, i32, i32, ptr, i32, %struct.AVRational, %struct.AVRational, %struct.AVRational, i32, i32, i32, i32, i32, %struct.AVRational, i32, i32, i32, i32, i32, i32, i32, i32, i32, i32, i32, ptr, ptr, i32, float, float, float, float, float, float, float, float, float, i32, i32, i32, i32, i32, i32, i32, i32, i32, i32, i32, i32, ptr, ptr, ptr, i32, i32, i32, i32, i32, i32, i32, i32, i32, i32, %struct.AVChannelLayout, i32, i32, i32, i32, i32, i32, i32, i32, ptr, i32, i32, i32, float, float, i32, i32, i32, i32, i32, ptr, i64, i64, float, float, i32, i32, ptr, ptr, i32, i32, i32, i32, i32, ptr, ptr, ptr, ptr, i32, i32, [8 x i64], i32, i32, i32, i32, i32, i32, i32, ptr, ptr, i32, i32, i32, i32, i32, i32, i32, i32, i32, i32, ptr, ptr, i32, i32, ptr, ptr, ptr, ptr, i32, i32, i64, i32, i32, i64, ptr, i64, ptr, i32, ptr, i32 }
%struct.AVRational = type { i32, i32 }
%struct.AVChannelLayout = type { i32, i32, %union.anon.0, ptr }
%union.anon.0 = type { i64 }

@.str.20 = private unnamed_addr constant [28 x i8] c"invalid number of channels\0A\00", align 1

; Function Attrs: cold nounwind optsize uwtable
define internal i32 @smka_decode_init(ptr noundef %0) #0 {
  %2 = alloca i32, align 4
  %3 = alloca ptr, align 8
  %4 = alloca i32, align 4
  %5 = alloca i32, align 4
  store ptr %0, ptr %3, align 8, !tbaa !4
  call void @llvm.lifetime.start.p0(i64 4, ptr %4) #11
  %6 = load ptr, ptr %3, align 8, !tbaa !4
  %7 = getelementptr inbounds nuw %struct.AVCodecContext, ptr %6, i32 0, i32 71
  %8 = getelementptr inbounds nuw %struct.AVChannelLayout, ptr %7, i32 0, i32 1
  %9 = load i32, ptr %8, align 4, !tbaa !73
  store i32 %9, ptr %4, align 4, !tbaa !37
  %10 = load i32, ptr %4, align 4, !tbaa !37
  %11 = icmp slt i32 %10, 1
  br i1 %11, label %15, label %12

12:                                               ; preds = %1
  %13 = load i32, ptr %4, align 4, !tbaa !37
  %14 = icmp sgt i32 %13, 2
  br i1 %14, label %15, label %17

15:                                               ; preds = %12, %1
  %16 = load ptr, ptr %3, align 8, !tbaa !4
  call void (ptr, i32, ptr, ...) @av_log(ptr noundef %16, i32 noundef 16, ptr noundef @.str.20)
  store i32 -1094995529, ptr %2, align 4
  store i32 1, ptr %5, align 4
  br label %30

17:                                               ; preds = %12
  %18 = load ptr, ptr %3, align 8, !tbaa !4
  %19 = getelementptr inbounds nuw %struct.AVCodecContext, ptr %18, i32 0, i32 71
  call void @av_channel_layout_uninit(ptr noundef %19)
  %20 = load ptr, ptr %3, align 8, !tbaa !4
  %21 = getelementptr inbounds nuw %struct.AVCodecContext, ptr %20, i32 0, i32 71
  %22 = load i32, ptr %4, align 4, !tbaa !37
  call void @av_channel_layout_default(ptr noundef %21, i32 noundef %22)
  %23 = load ptr, ptr %3, align 8, !tbaa !4
  %24 = getelementptr inbounds nuw %struct.AVCodecContext, ptr %23, i32 0, i32 114
  %25 = load i32, ptr %24, align 8, !tbaa !74
  %26 = icmp eq i32 %25, 8
  %27 = select i1 %26, i32 0, i32 1
  %28 = load ptr, ptr %3, align 8, !tbaa !4
  %29 = getelementptr inbounds nuw %struct.AVCodecContext, ptr %28, i32 0, i32 70
  store i32 %27, ptr %29, align 4, !tbaa !75
  store i32 0, ptr %2, align 4
  store i32 1, ptr %5, align 4
  br label %30

30:                                               ; preds = %17, %15
  call void @llvm.lifetime.end.p0(i64 4, ptr %4) #11
  %31 = load i32, ptr %2, align 4
  ret i32 %31
}