; Function Attrs: cold nounwind optsize uwtable
define internal range(i32 -1094995529, 1) i32 @smka_decode_init(ptr noundef %0) #0 {
  %2 = getelementptr inbounds nuw i8, ptr %0, i64 356
  %3 = load i32, ptr %2, align 4, !tbaa !71
  %4 = add i32 %3, -3
  %or.cond = icmp ult i32 %4, -2
  br i1 %or.cond, label %5, label %6

5:                                                ; preds = %1
  tail call void (ptr, i32, ptr, ...) @av_log(ptr noundef nonnull %0, i32 noundef 16, ptr noundef nonnull @.str.20) #7
  br label %13

6:                                                ; preds = %1
  %7 = getelementptr inbounds nuw i8, ptr %0, i64 352
  tail call void @av_channel_layout_uninit(ptr noundef nonnull %7) #7
  tail call void @av_channel_layout_default(ptr noundef nonnull %7, i32 noundef %3) #7
  %8 = getelementptr inbounds nuw i8, ptr %0, i64 648
  %9 = load i32, ptr %8, align 8, !tbaa !72
  %10 = icmp ne i32 %9, 8
  %11 = zext i1 %10 to i32
  %12 = getelementptr inbounds nuw i8, ptr %0, i64 348
  store i32 %11, ptr %12, align 4, !tbaa !73
  br label %13

13:                                               ; preds = %6, %5
  %.0 = phi i32 [ -1094995529, %5 ], [ 0, %6 ]
  ret i32 %.0
}